; ModuleID = '21/1548.c'
source_filename = "21/1548.c"
target datalayout = "e-m:e-p270:32:32-p271:32:32-p272:64:64-i64:64-f80:128-n8:16:32:64-S128"
target triple = "x86_64-pc-linux-gnu"

@.str = private unnamed_addr constant [3 x i8] c"%d\00", align 1
@.str.1 = private unnamed_addr constant [4 x i8] c"%lf\00", align 1
@.str.2 = private unnamed_addr constant [5 x i8] c"%.0f\00", align 1
@.str.3 = private unnamed_addr constant [6 x i8] c",%.0f\00", align 1
@.str.4 = private unnamed_addr constant [2 x i8] c"\0A\00", align 1

; Function Attrs: noinline nounwind uwtable
define dso_local i32 @main() #0 {
  %1 = alloca i32, align 4
  %2 = alloca i32, align 4
  %3 = alloca i32, align 4
  %4 = alloca i32, align 4
  %5 = alloca [1000 x double], align 16
  %6 = alloca double, align 8
  %7 = alloca double, align 8
  %8 = alloca double, align 8
  store i32 0, i32* %1, align 4
  store i32 0, i32* %4, align 4
  %9 = bitcast [1000 x double]* %5 to i8*
  call void @llvm.memset.p0i8.i64(i8* align 16 %9, i8 0, i64 8000, i1 false)
  store double 0.000000e+00, double* %6, align 8
  store double -1.000000e+00, double* %8, align 8
  %10 = call i32 (i8*, ...) @__isoc99_scanf(i8* getelementptr inbounds ([3 x i8], [3 x i8]* @.str, i64 0, i64 0), i32* %2)
  store i32 1, i32* %3, align 4
  br label %11

11:                                               ; preds = %26, %0
  %12 = load i32, i32* %3, align 4
  %13 = load i32, i32* %2, align 4
  %14 = icmp sle i32 %12, %13
  br i1 %14, label %15, label %29

15:                                               ; preds = %11
  %16 = load i32, i32* %3, align 4
  %17 = sext i32 %16 to i64
  %18 = getelementptr inbounds [1000 x double], [1000 x double]* %5, i64 0, i64 %17
  %19 = call i32 (i8*, ...) @__isoc99_scanf(i8* getelementptr inbounds ([4 x i8], [4 x i8]* @.str.1, i64 0, i64 0), double* %18)
  %20 = load i32, i32* %3, align 4
  %21 = sext i32 %20 to i64
  %22 = getelementptr inbounds [1000 x double], [1000 x double]* %5, i64 0, i64 %21
  %23 = load double, double* %22, align 8
  %24 = load double, double* %6, align 8
  %25 = fadd double %24, %23
  store double %25, double* %6, align 8
  br label %26

26:                                               ; preds = %15
  %27 = load i32, i32* %3, align 4
  %28 = add nsw i32 %27, 1
  store i32 %28, i32* %3, align 4
  br label %11

29:                                               ; preds = %11
  %30 = load double, double* %6, align 8
  %31 = load i32, i32* %2, align 4
  %32 = sitofp i32 %31 to double
  %33 = fdiv double %30, %32
  store double %33, double* %7, align 8
  store i32 1, i32* %3, align 4
  br label %34

34:                                               ; preds = %57, %29
  %35 = load i32, i32* %3, align 4
  %36 = load i32, i32* %2, align 4
  %37 = icmp sle i32 %35, %36
  br i1 %37, label %38, label %60

38:                                               ; preds = %34
  %39 = load i32, i32* %3, align 4
  %40 = sext i32 %39 to i64
  %41 = getelementptr inbounds [1000 x double], [1000 x double]* %5, i64 0, i64 %40
  %42 = load double, double* %41, align 8
  %43 = load double, double* %7, align 8
  %44 = fsub double %42, %43
  %45 = call double @llvm.fabs.f64(double %44)
  %46 = load double, double* %8, align 8
  %47 = fcmp ogt double %45, %46
  br i1 %47, label %48, label %56

48:                                               ; preds = %38
  %49 = load i32, i32* %3, align 4
  %50 = sext i32 %49 to i64
  %51 = getelementptr inbounds [1000 x double], [1000 x double]* %5, i64 0, i64 %50
  %52 = load double, double* %51, align 8
  %53 = load double, double* %7, align 8
  %54 = fsub double %52, %53
  %55 = call double @llvm.fabs.f64(double %54)
  store double %55, double* %8, align 8
  br label %56

56:                                               ; preds = %48, %38
  br label %57

57:                                               ; preds = %56
  %58 = load i32, i32* %3, align 4
  %59 = add nsw i32 %58, 1
  store i32 %59, i32* %3, align 4
  br label %34

60:                                               ; preds = %34
  store i32 1, i32* %3, align 4
  br label %61

61:                                               ; preds = %96, %60
  %62 = load i32, i32* %3, align 4
  %63 = load i32, i32* %2, align 4
  %64 = icmp sle i32 %62, %63
  br i1 %64, label %65, label %99

65:                                               ; preds = %61
  %66 = load i32, i32* %3, align 4
  %67 = sext i32 %66 to i64
  %68 = getelementptr inbounds [1000 x double], [1000 x double]* %5, i64 0, i64 %67
  %69 = load double, double* %68, align 8
  %70 = load double, double* %7, align 8
  %71 = fsub double %69, %70
  %72 = call double @llvm.fabs.f64(double %71)
  %73 = load double, double* %8, align 8
  %74 = fsub double %72, %73
  %75 = call double @llvm.fabs.f64(double %74)
  %76 = fcmp olt double %75, 1.000000e-03
  br i1 %76, label %77, label %95

77:                                               ; preds = %65
  %78 = load i32, i32* %4, align 4
  %79 = icmp eq i32 %78, 0
  br i1 %79, label %80, label %88

80:                                               ; preds = %77
  %81 = load i32, i32* %3, align 4
  %82 = sext i32 %81 to i64
  %83 = getelementptr inbounds [1000 x double], [1000 x double]* %5, i64 0, i64 %82
  %84 = load double, double* %83, align 8
  %85 = call i32 (i8*, ...) @printf(i8* getelementptr inbounds ([5 x i8], [5 x i8]* @.str.2, i64 0, i64 0), double %84)
  %86 = load i32, i32* %4, align 4
  %87 = add nsw i32 %86, 1
  store i32 %87, i32* %4, align 4
  br label %94

88:                                               ; preds = %77
  %89 = load i32, i32* %3, align 4
  %90 = sext i32 %89 to i64
  %91 = getelementptr inbounds [1000 x double], [1000 x double]* %5, i64 0, i64 %90
  %92 = load double, double* %91, align 8
  %93 = call i32 (i8*, ...) @printf(i8* getelementptr inbounds ([6 x i8], [6 x i8]* @.str.3, i64 0, i64 0), double %92)
  br label %94

94:                                               ; preds = %88, %80
  br label %95

95:                                               ; preds = %94, %65
  br label %96

96:                                               ; preds = %95
  %97 = load i32, i32* %3, align 4
  %98 = add nsw i32 %97, 1
  store i32 %98, i32* %3, align 4
  br label %61

99:                                               ; preds = %61
  %100 = call i32 (i8*, ...) @printf(i8* getelementptr inbounds ([2 x i8], [2 x i8]* @.str.4, i64 0, i64 0))
  ret i32 0
}

; Function Attrs: argmemonly nounwind willreturn
declare void @llvm.memset.p0i8.i64(i8* nocapture writeonly, i8, i64, i1 immarg) #1

declare dso_local i32 @__isoc99_scanf(i8*, ...) #2

; Function Attrs: nounwind readnone speculatable willreturn
declare double @llvm.fabs.f64(double) #3

declare dso_local i32 @printf(i8*, ...) #2


!llvm.module.flags = !{!0}
!llvm.ident = !{!1}

!0 = !{i32 1, !"wchar_size", i32 4}
!1 = !{!"clang version 10.0.0-4ubuntu1 "}
